target datalayout = "e-m:e-p270:32:32-p271:32:32-p272:64:64-i64:64-i128:128-f80:128-n8:16:32:64-S128"
target triple = "x86_64-pc-linux-gnu"

%struct._zend_phpdbg_globals = type { [11 x %struct._zend_array], %struct._zend_array, %struct._zend_array, ptr, ptr, %struct.phpdbg_frame_t, i32, ptr, %struct.phpdbg_lexer_data, ptr, %struct.sigaction, i32, i64, %struct.phpdbg_btree, %struct.phpdbg_btree, %struct._zend_array, %struct._zend_array, %struct._zend_array, %struct._zend_array, ptr, ptr, i8, ptr, ptr, ptr, i64, ptr, %struct._zval_struct, i32, i32, i8, i8, ptr, ptr, ptr, %struct._zend_array, ptr, ptr, ptr, [3 x %struct.anon.8], ptr, %struct.anon.9, i64, [2 x ptr], [3 x ptr], ptr, i8, ptr, ptr, [500 x i8], i32, %struct.phpdbg_signal_safe_mem, ptr, i64, ptr, i64 }
%struct.phpdbg_frame_t = type { i32, ptr, ptr }
%struct.phpdbg_lexer_data = type { i32, ptr, ptr, ptr, ptr, i32 }
%struct.sigaction = type { %union.anon.2, %struct.__sigset_t, i32, ptr }
%union.anon.2 = type { ptr }
%struct.__sigset_t = type { [16 x i64] }
%struct.phpdbg_btree = type { i64, i64, i8, ptr }
%struct._zval_struct = type { %union._zend_value, %union.anon.4, %union.anon.7 }
%union._zend_value = type { i64 }
%union.anon.4 = type { i32 }
%union.anon.7 = type { i32 }
%struct._zend_array = type { %struct._zend_refcounted_h, %union.anon.0, i32, %union.anon.1, i32, i32, i32, i32, i64, ptr }
%struct._zend_refcounted_h = type { i32, %union.anon }
%union.anon = type { i32 }
%union.anon.0 = type { i32 }
%union.anon.1 = type { ptr }
%struct.anon.8 = type { i32 }
%struct.anon.9 = type { i8, i32, i32, ptr, i32 }
%struct.phpdbg_signal_safe_mem = type { ptr, i8, ptr, ptr }
%struct._phpdbg_param = type { i32, i64, i64, %struct.anon.10, %struct.anon.11, ptr, i64, ptr, ptr }
%struct.anon.10 = type { ptr, i64 }
%struct.anon.11 = type { ptr, ptr }
%struct._zend_string = type { %struct._zend_refcounted_h, i64, i64, [1 x i8] }
%struct._zend_class_entry = type { i8, ptr, %union.anon.12, i32, i32, i32, i32, ptr, ptr, ptr, %struct._zend_array, %struct._zend_array, %struct._zend_array, ptr, ptr, ptr, ptr, ptr, ptr, ptr, ptr, ptr, ptr, ptr, ptr, ptr, ptr, ptr, ptr, ptr, ptr, ptr, %union.anon.13, ptr, ptr, ptr, ptr, i32, i32, %union.anon.14, ptr, ptr, ptr, ptr, i32, ptr, ptr, %union.anon.15 }
%union.anon.12 = type { ptr }
%union.anon.13 = type { ptr }
%union.anon.14 = type { ptr }
%union.anon.15 = type { %struct.anon.16 }
%struct.anon.16 = type { ptr, i32, i32 }

@phpdbg_globals = external global %struct._zend_phpdbg_globals, align 8
@.str.15 = private unnamed_addr constant [55 x i8] c"The source of the requested class (%s) cannot be found\00", align 1
@.str.16 = private unnamed_addr constant [45 x i8] c"The class requested (%s) is not user defined\00", align 1
@.str.17 = private unnamed_addr constant [44 x i8] c"The requested class (%s) could not be found\00", align 1

; Function Attrs: nounwind uwtable
define hidden i32 @phpdbg_do_list_class(ptr noundef %0) #0 {
  %2 = alloca ptr, align 8
  %3 = alloca ptr, align 8
  store ptr %0, ptr %2, align 8
  %4 = load ptr, ptr %2, align 8
  %5 = getelementptr inbounds %struct._phpdbg_param, ptr %4, i32 0, i32 5
  %6 = load ptr, ptr %5, align 8
  %7 = load ptr, ptr %2, align 8
  %8 = getelementptr inbounds %struct._phpdbg_param, ptr %7, i32 0, i32 6
  %9 = load i64, ptr %8, align 8
  %10 = trunc i64 %9 to i32
  %11 = call i32 @phpdbg_safe_class_lookup(ptr noundef %6, i32 noundef %10, ptr noundef %3)
  %12 = icmp eq i32 %11, 0
  br i1 %12, label %13, label %62

13:                                               ; preds = %1
  %14 = load ptr, ptr %3, align 8
  %15 = getelementptr inbounds %struct._zend_class_entry, ptr %14, i32 0, i32 0
  %16 = load i8, ptr %15, align 8
  %17 = sext i8 %16 to i32
  %18 = icmp eq i32 %17, 2
  br i1 %18, label %19, label %53

19:                                               ; preds = %13
  %20 = load ptr, ptr %3, align 8
  %21 = getelementptr inbounds %struct._zend_class_entry, ptr %20, i32 0, i32 47
  %22 = getelementptr inbounds %struct.anon.16, ptr %21, i32 0, i32 0
  %23 = load ptr, ptr %22, align 8
  %24 = icmp ne ptr %23, null
  br i1 %24, label %25, label %44

25:                                               ; preds = %19
  %26 = load ptr, ptr %3, align 8
  %27 = getelementptr inbounds %struct._zend_class_entry, ptr %26, i32 0, i32 47
  %28 = getelementptr inbounds %struct.anon.16, ptr %27, i32 0, i32 0
  %29 = load ptr, ptr %28, align 8
  %30 = load ptr, ptr %3, align 8
  %31 = getelementptr inbounds %struct._zend_class_entry, ptr %30, i32 0, i32 47
  %32 = getelementptr inbounds %struct.anon.16, ptr %31, i32 0, i32 2
  %33 = load i32, ptr %32, align 4
  %34 = load ptr, ptr %3, align 8
  %35 = getelementptr inbounds %struct._zend_class_entry, ptr %34, i32 0, i32 47
  %36 = getelementptr inbounds %struct.anon.16, ptr %35, i32 0, i32 1
  %37 = load i32, ptr %36, align 8
  %38 = sub i32 %33, %37
  %39 = add i32 %38, 1
  %40 = load ptr, ptr %3, align 8
  %41 = getelementptr inbounds %struct._zend_class_entry, ptr %40, i32 0, i32 47
  %42 = getelementptr inbounds %struct.anon.16, ptr %41, i32 0, i32 1
  %43 = load i32, ptr %42, align 8
  call void @phpdbg_list_file(ptr noundef %29, i32 noundef %39, i32 noundef %43, i32 noundef 0)
  br label %52

44:                                               ; preds = %19
  %45 = load i32, ptr getelementptr inbounds (%struct._zend_phpdbg_globals, ptr @phpdbg_globals, i32 0, i32 39, i64 1), align 4
  %46 = load ptr, ptr %3, align 8
  %47 = getelementptr inbounds %struct._zend_class_entry, ptr %46, i32 0, i32 1
  %48 = load ptr, ptr %47, align 8
  %49 = getelementptr inbounds %struct._zend_string, ptr %48, i32 0, i32 3
  %50 = getelementptr inbounds [1 x i8], ptr %49, i64 0, i64 0
  %51 = call i32 (i32, i32, ptr, ...) @phpdbg_print(i32 noundef 1, i32 noundef %45, ptr noundef @.str.15, ptr noundef %50)
  br label %52

52:                                               ; preds = %44, %25
  br label %61

53:                                               ; preds = %13
  %54 = load i32, ptr getelementptr inbounds (%struct._zend_phpdbg_globals, ptr @phpdbg_globals, i32 0, i32 39, i64 1), align 4
  %55 = load ptr, ptr %3, align 8
  %56 = getelementptr inbounds %struct._zend_class_entry, ptr %55, i32 0, i32 1
  %57 = load ptr, ptr %56, align 8
  %58 = getelementptr inbounds %struct._zend_string, ptr %57, i32 0, i32 3
  %59 = getelementptr inbounds [1 x i8], ptr %58, i64 0, i64 0
  %60 = call i32 (i32, i32, ptr, ...) @phpdbg_print(i32 noundef 1, i32 noundef %54, ptr noundef @.str.16, ptr noundef %59)
  br label %61

61:                                               ; preds = %53, %52
  br label %68

62:                                               ; preds = %1
  %63 = load i32, ptr getelementptr inbounds (%struct._zend_phpdbg_globals, ptr @phpdbg_globals, i32 0, i32 39, i64 1), align 4
  %64 = load ptr, ptr %2, align 8
  %65 = getelementptr inbounds %struct._phpdbg_param, ptr %64, i32 0, i32 5
  %66 = load ptr, ptr %65, align 8
  %67 = call i32 (i32, i32, ptr, ...) @phpdbg_print(i32 noundef 1, i32 noundef %63, ptr noundef @.str.17, ptr noundef %66)
  br label %68

68:                                               ; preds = %62, %61
  ret i32 0
}