; Function Attrs: nounwind uwtable
define hidden noundef i32 @phpdbg_do_list_class(ptr nocapture noundef readonly %0) #0 {
  %2 = alloca ptr, align 8
  %3 = getelementptr inbounds i8, ptr %0, i64 56
  %4 = load ptr, ptr %3, align 8
  %5 = getelementptr inbounds i8, ptr %0, i64 64
  %6 = load i64, ptr %5, align 8
  %7 = trunc i64 %6 to i32
  %8 = call i32 @phpdbg_safe_class_lookup(ptr noundef %4, i32 noundef %7, ptr noundef nonnull %2) #11
  %9 = icmp eq i32 %8, 0
  br i1 %9, label %10, label %36

10:                                               ; preds = %1
  %11 = load ptr, ptr %2, align 8
  %12 = load i8, ptr %11, align 8
  %13 = icmp eq i8 %12, 2
  br i1 %13, label %14, label %30

14:                                               ; preds = %10
  %15 = getelementptr inbounds i8, ptr %11, i64 496
  %16 = load ptr, ptr %15, align 8
  %.not = icmp eq ptr %16, null
  br i1 %.not, label %24, label %17

17:                                               ; preds = %14
  %18 = getelementptr inbounds i8, ptr %11, i64 508
  %19 = load i32, ptr %18, align 4
  %20 = getelementptr inbounds i8, ptr %11, i64 504
  %21 = load i32, ptr %20, align 8
  %22 = add i32 %19, 1
  %23 = sub i32 %22, %21
  call void @phpdbg_list_file(ptr noundef nonnull %16, i32 noundef %23, i32 noundef %21, i32 noundef 0)
  br label %40

24:                                               ; preds = %14
  %25 = load i32, ptr getelementptr inbounds (%struct._zend_phpdbg_globals, ptr @phpdbg_globals, i64 0, i32 39, i64 1), align 4
  %26 = getelementptr inbounds i8, ptr %11, i64 8
  %27 = load ptr, ptr %26, align 8
  %28 = getelementptr inbounds i8, ptr %27, i64 24
  %29 = call i32 (i32, i32, ptr, ...) @phpdbg_print(i32 noundef 1, i32 noundef %25, ptr noundef nonnull @.str.15, ptr noundef nonnull %28) #11
  br label %40

30:                                               ; preds = %10
  %31 = load i32, ptr getelementptr inbounds (%struct._zend_phpdbg_globals, ptr @phpdbg_globals, i64 0, i32 39, i64 1), align 4
  %32 = getelementptr inbounds i8, ptr %11, i64 8
  %33 = load ptr, ptr %32, align 8
  %34 = getelementptr inbounds i8, ptr %33, i64 24
  %35 = call i32 (i32, i32, ptr, ...) @phpdbg_print(i32 noundef 1, i32 noundef %31, ptr noundef nonnull @.str.16, ptr noundef nonnull %34) #11
  br label %40

36:                                               ; preds = %1
  %37 = load i32, ptr getelementptr inbounds (%struct._zend_phpdbg_globals, ptr @phpdbg_globals, i64 0, i32 39, i64 1), align 4
  %38 = load ptr, ptr %3, align 8
  %39 = call i32 (i32, i32, ptr, ...) @phpdbg_print(i32 noundef 1, i32 noundef %37, ptr noundef nonnull @.str.17, ptr noundef %38) #11
  br label %40

40:                                               ; preds = %30, %24, %17, %36
  ret i32 0
}